target datalayout = "e-m:e-p270:32:32-p271:32:32-p272:64:64-i64:64-i128:128-f80:128-n8:16:32:64-S128"
target triple = "x86_64-pc-linux-gnu"

@.str = private unnamed_addr constant [118 x i8] c"generated/home/dtcxzyw/WorkSpace/Projects/compilers/llvm-opt-benchmark/bench/libquic/libquic/boringssl/ssl/ssl_asn1.c\00", align 1

; Function Attrs: nounwind uwtable
define internal ptr @parse_x509(ptr noundef %0) #0 {
  %2 = alloca ptr, align 8
  %3 = alloca ptr, align 8
  %4 = alloca ptr, align 8
  %5 = alloca ptr, align 8
  %6 = alloca i32, align 4
  store ptr %0, ptr %3, align 8, !tbaa !52
  %7 = load ptr, ptr %3, align 8, !tbaa !52
  %8 = call i64 @CBS_len(ptr noundef %7)
  %9 = icmp ugt i64 %8, 9223372036854775807
  br i1 %9, label %10, label %11

10:                                               ; preds = %1
  call void @ERR_put_error(i32 noundef 16, i32 noundef 0, i32 noundef 160, ptr noundef @.str, i32 noundef 496)
  store ptr null, ptr %2, align 8
  br label %31

11:                                               ; preds = %1
  call void @llvm.lifetime.start.p0(i64 8, ptr %4) #6
  %12 = load ptr, ptr %3, align 8, !tbaa !52
  %13 = call ptr @CBS_data(ptr noundef %12)
  store ptr %13, ptr %4, align 8, !tbaa !51
  call void @llvm.lifetime.start.p0(i64 8, ptr %5) #6
  %14 = load ptr, ptr %3, align 8, !tbaa !52
  %15 = call i64 @CBS_len(ptr noundef %14)
  %16 = call ptr @d2i_X509(ptr noundef null, ptr noundef %4, i64 noundef %15)
  store ptr %16, ptr %5, align 8, !tbaa !56
  %17 = load ptr, ptr %5, align 8, !tbaa !56
  %18 = icmp eq ptr %17, null
  br i1 %18, label %19, label %20

19:                                               ; preds = %11
  store ptr null, ptr %2, align 8
  store i32 1, ptr %6, align 4
  br label %30

20:                                               ; preds = %11
  %21 = load ptr, ptr %3, align 8, !tbaa !52
  %22 = load ptr, ptr %4, align 8, !tbaa !51
  %23 = load ptr, ptr %3, align 8, !tbaa !52
  %24 = call ptr @CBS_data(ptr noundef %23)
  %25 = ptrtoint ptr %22 to i64
  %26 = ptrtoint ptr %24 to i64
  %27 = sub i64 %25, %26
  %28 = call i32 @CBS_skip(ptr noundef %21, i64 noundef %27)
  %29 = load ptr, ptr %5, align 8, !tbaa !56
  store ptr %29, ptr %2, align 8
  store i32 1, ptr %6, align 4
  br label %30

30:                                               ; preds = %20, %19
  call void @llvm.lifetime.end.p0(i64 8, ptr %5) #6
  call void @llvm.lifetime.end.p0(i64 8, ptr %4) #6
  br label %31

31:                                               ; preds = %30, %10
  %32 = load ptr, ptr %2, align 8
  ret ptr %32
}