; Function Attrs: nounwind uwtable
define internal fastcc ptr @parse_x509(ptr noundef nonnull %0) unnamed_addr #0 {
  %2 = alloca ptr, align 8
  %3 = tail call i64 @CBS_len(ptr noundef nonnull %0) #7
  %4 = icmp slt i64 %3, 0
  br i1 %4, label %5, label %6

5:                                                ; preds = %1
  tail call void @ERR_put_error(i32 noundef 16, i32 noundef 0, i32 noundef 160, ptr noundef nonnull @.str, i32 noundef 496) #7
  br label %19

6:                                                ; preds = %1
  call void @llvm.lifetime.start.p0(i64 8, ptr nonnull %2) #7
  %7 = tail call ptr @CBS_data(ptr noundef nonnull %0) #7
  store ptr %7, ptr %2, align 8, !tbaa !45
  %8 = tail call i64 @CBS_len(ptr noundef nonnull %0) #7
  %9 = call ptr @d2i_X509(ptr noundef null, ptr noundef nonnull %2, i64 noundef %8) #7
  %10 = icmp eq ptr %9, null
  br i1 %10, label %18, label %11

11:                                               ; preds = %6
  %12 = load ptr, ptr %2, align 8, !tbaa !45
  %13 = call ptr @CBS_data(ptr noundef nonnull %0) #7
  %14 = ptrtoint ptr %12 to i64
  %15 = ptrtoint ptr %13 to i64
  %16 = sub i64 %14, %15
  %17 = call i32 @CBS_skip(ptr noundef nonnull %0, i64 noundef %16) #7
  br label %18

18:                                               ; preds = %6, %11
  call void @llvm.lifetime.end.p0(i64 8, ptr nonnull %2) #7
  br label %19

19:                                               ; preds = %18, %5
  %.0 = phi ptr [ null, %5 ], [ %9, %18 ]
  ret ptr %.0
}